; Function Attrs: nounwind uwtable
define dso_local i64 @pg_replication_origin_progress(ptr noundef captures(none) %0) local_unnamed_addr #0 {
  %2 = load i32, ptr @max_replication_slots, align 4
  %3 = icmp eq i32 %2, 0
  br i1 %3, label %4, label %replorigin_check_prerequisites.exit

4:                                                ; preds = %1
  %5 = tail call zeroext i1 @errstart_cold(i32 noundef 21, ptr noundef null) #11
  tail call void @llvm.assume(i1 %5)
  %6 = tail call i32 @errcode(i32 noundef 325) #10
  %7 = tail call i32 (ptr, ...) @errmsg(ptr noundef nonnull @.str.32) #10
  tail call void @errfinish(ptr noundef nonnull @.str.1, i32 noundef 194, ptr noundef nonnull @__func__.replorigin_check_prerequisites) #10
  unreachable

replorigin_check_prerequisites.exit:              ; preds = %1
  %8 = getelementptr inbounds nuw i8, ptr %0, i64 32
  %9 = load i64, ptr %8, align 8
  %10 = inttoptr i64 %9 to ptr
  %11 = tail call ptr @text_to_cstring(ptr noundef %10) #10
  %12 = getelementptr inbounds nuw i8, ptr %0, i64 48
  %13 = load i64, ptr %12, align 8
  %14 = icmp ne i64 %13, 0
  %15 = tail call zeroext i16 @replorigin_by_name(ptr noundef %11, i1 noundef zeroext false)
  %16 = load ptr, ptr @MainLWLockArray, align 8
  %17 = getelementptr inbounds nuw i8, ptr %16, i64 5120
  %18 = tail call zeroext i1 @LWLockAcquire(ptr noundef nonnull %17, i32 noundef 1) #10
  %19 = load i32, ptr @max_replication_slots, align 4
  %20 = icmp sgt i32 %19, 0
  br i1 %20, label %.lr.ph.i, label %.loopexit.i

.lr.ph.i:                                         ; preds = %replorigin_check_prerequisites.exit
  %21 = load ptr, ptr @replication_states, align 8
  %wide.trip.count.i = zext nneg i32 %19 to i64
  br label %23

22:                                               ; preds = %23
  %indvars.iv.next.i = add nuw nsw i64 %indvars.iv.i, 1
  %exitcond.not.i = icmp eq i64 %indvars.iv.next.i, %wide.trip.count.i
  br i1 %exitcond.not.i, label %.loopexit.i, label %23, !llvm.loop !14

23:                                               ; preds = %22, %.lr.ph.i
  %indvars.iv.i = phi i64 [ 0, %.lr.ph.i ], [ %indvars.iv.next.i, %22 ]
  %24 = getelementptr inbounds nuw %struct.ReplicationState, ptr %21, i64 %indvars.iv.i
  %25 = load i16, ptr %24, align 8
  %26 = icmp eq i16 %25, %15
  br i1 %26, label %27, label %22

27:                                               ; preds = %23
  %28 = getelementptr inbounds nuw i8, ptr %24, i64 40
  %29 = tail call zeroext i1 @LWLockAcquire(ptr noundef nonnull %28, i32 noundef 1) #10
  %30 = getelementptr inbounds nuw i8, ptr %24, i64 8
  %31 = load i64, ptr %30, align 8
  %32 = getelementptr inbounds nuw i8, ptr %24, i64 16
  %33 = load i64, ptr %32, align 8
  tail call void @LWLockRelease(ptr noundef nonnull %28) #10
  br label %.loopexit.i

.loopexit.i:                                      ; preds = %22, %27, %replorigin_check_prerequisites.exit
  %.117.i = phi i64 [ %33, %27 ], [ 0, %replorigin_check_prerequisites.exit ], [ 0, %22 ]
  %.1.i = phi i64 [ %31, %27 ], [ 0, %replorigin_check_prerequisites.exit ], [ 0, %22 ]
  %34 = load ptr, ptr @MainLWLockArray, align 8
  %35 = getelementptr inbounds nuw i8, ptr %34, i64 5120
  tail call void @LWLockRelease(ptr noundef nonnull %35) #10
  %36 = icmp ne i64 %.117.i, 0
  %or.cond.i = select i1 %14, i1 %36, i1 false
  br i1 %or.cond.i, label %37, label %replorigin_get_progress.exit

37:                                               ; preds = %.loopexit.i
  tail call void @XLogFlush(i64 noundef %.117.i) #10
  br label %replorigin_get_progress.exit

replorigin_get_progress.exit:                     ; preds = %.loopexit.i, %37
  %38 = icmp eq i64 %.1.i, 0
  br i1 %38, label %39, label %41

39:                                               ; preds = %replorigin_get_progress.exit
  %40 = getelementptr inbounds nuw i8, ptr %0, i64 28
  store i8 1, ptr %40, align 4
  br label %41

41:                                               ; preds = %replorigin_get_progress.exit, %39
  ret i64 %.1.i
}